; ModuleID = 'source-C-CXX/46/4259.c'
source_filename = "source-C-CXX/46/4259.c"
target datalayout = "e-m:e-p270:32:32-p271:32:32-p272:64:64-i64:64-f80:128-n8:16:32:64-S128"
target triple = "x86_64-pc-linux-gnu"

@.str = private unnamed_addr constant [3 x i8] c"%d\00", align 1
@.str.1 = private unnamed_addr constant [4 x i8] c"%d \00", align 1

; Function Attrs: nofree nounwind sspstrong uwtable
define dso_local void @main() local_unnamed_addr #0 {
  %1 = alloca i32, align 4
  %2 = alloca [100 x i32], align 16
  %3 = bitcast i32* %1 to i8*
  call void @llvm.lifetime.start.p0i8(i64 4, i8* nonnull %3) #3
  %4 = bitcast [100 x i32]* %2 to i8*
  call void @llvm.lifetime.start.p0i8(i64 400, i8* nonnull %4) #3
  %5 = call i32 (i8*, ...) @__isoc99_scanf(i8* getelementptr inbounds ([3 x i8], [3 x i8]* @.str, i64 0, i64 0), i32* nonnull %1)
  %6 = load i32, i32* %1, align 4, !tbaa !5
  %7 = icmp sgt i32 %6, 0
  br i1 %7, label %8, label %10

8:                                                ; preds = %0
  %9 = getelementptr inbounds [100 x i32], [100 x i32]* %2, i64 0, i64 0
  br label %14

10:                                               ; preds = %0
  %11 = getelementptr inbounds [100 x i32], [100 x i32]* %2, i64 0, i64 -1
  br label %32

12:                                               ; preds = %14
  %13 = icmp sgt i32 %20, 1
  br i1 %13, label %22, label %32

14:                                               ; preds = %8, %14
  %15 = phi i32* [ %18, %14 ], [ %9, %8 ]
  %16 = phi i32 [ %19, %14 ], [ 0, %8 ]
  %17 = call i32 (i8*, ...) @__isoc99_scanf(i8* getelementptr inbounds ([3 x i8], [3 x i8]* @.str, i64 0, i64 0), i32* nonnull %15)
  %18 = getelementptr inbounds i32, i32* %15, i64 1
  %19 = add nuw nsw i32 %16, 1
  %20 = load i32, i32* %1, align 4, !tbaa !5
  %21 = icmp slt i32 %19, %20
  br i1 %21, label %14, label %12, !llvm.loop !9

22:                                               ; preds = %12, %22
  %23 = phi i32* [ %28, %22 ], [ %15, %12 ]
  %24 = phi i32 [ %27, %22 ], [ 0, %12 ]
  %25 = load i32, i32* %23, align 4, !tbaa !5
  %26 = call i32 (i8*, ...) @printf(i8* nonnull dereferenceable(1) getelementptr inbounds ([4 x i8], [4 x i8]* @.str.1, i64 0, i64 0), i32 %25)
  %27 = add nuw nsw i32 %24, 1
  %28 = getelementptr inbounds i32, i32* %23, i64 -1
  %29 = load i32, i32* %1, align 4, !tbaa !5
  %30 = add nsw i32 %29, -1
  %31 = icmp slt i32 %27, %30
  br i1 %31, label %22, label %32, !llvm.loop !11

32:                                               ; preds = %22, %10, %12
  %33 = phi i32* [ %15, %12 ], [ %11, %10 ], [ %28, %22 ]
  %34 = load i32, i32* %33, align 4, !tbaa !5
  %35 = call i32 (i8*, ...) @printf(i8* nonnull dereferenceable(1) getelementptr inbounds ([3 x i8], [3 x i8]* @.str, i64 0, i64 0), i32 %34)
  call void @llvm.lifetime.end.p0i8(i64 400, i8* nonnull %4) #3
  call void @llvm.lifetime.end.p0i8(i64 4, i8* nonnull %3) #3
  ret void
}

; Function Attrs: argmemonly mustprogress nofree nosync nounwind willreturn
declare void @llvm.lifetime.start.p0i8(i64 immarg, i8* nocapture) #1

; Function Attrs: nofree nounwind
declare noundef i32 @__isoc99_scanf(i8* nocapture noundef readonly, ...) local_unnamed_addr #2

; Function Attrs: nofree nounwind
declare noundef i32 @printf(i8* nocapture noundef readonly, ...) local_unnamed_addr #2

; Function Attrs: argmemonly mustprogress nofree nosync nounwind willreturn
declare void @llvm.lifetime.end.p0i8(i64 immarg, i8* nocapture) #1


!llvm.module.flags = !{!0, !1, !2, !3}
!llvm.ident = !{!4}

!0 = !{i32 1, !"wchar_size", i32 4}
!1 = !{i32 7, !"PIC Level", i32 2}
!2 = !{i32 7, !"PIE Level", i32 2}
!3 = !{i32 7, !"uwtable", i32 1}
!4 = !{!"clang version 13.0.0"}
!5 = !{!6, !6, i64 0}
!6 = !{!"int", !7, i64 0}
!7 = !{!"omnipotent char", !8, i64 0}
!8 = !{!"Simple C/C++ TBAA"}
!9 = distinct !{!9, !10}
!10 = !{!"llvm.loop.mustprogress"}
!11 = distinct !{!11, !10}
